; Function Attrs: mustprogress uwtable
define hidden void @_ZN4cvc58internal6theory8Rewriter7rewriteENS0_12NodeTemplateILb0EEE(ptr dead_on_unwind noalias writable writeonly sret(%"class.cvc5::internal::NodeTemplate") align 8 captures(none) %0, ptr noundef nonnull align 8 dereferenceable(216) %1, ptr noundef readonly captures(none) %2) local_unnamed_addr #3 align 2 personality ptr @__gxx_personality_v0 {
  %4 = alloca %"class.cvc5::internal::NodeTemplate", align 8
  %5 = load ptr, ptr %2, align 8, !tbaa !3
  %6 = getelementptr inbounds nuw i8, ptr %5, i64 8
  %7 = load i64, ptr %6, align 8
  %8 = trunc i64 %7 to i32
  %9 = and i32 %8, 1023
  %10 = icmp eq i32 %9, 1023
  %11 = select i1 %10, i32 -1, i32 %9
  %12 = tail call noundef i32 @_ZN4cvc58internal4kind10metaKindOfENS1_6Kind_tE(i32 noundef %11)
  %13 = icmp eq i32 %12, 2
  %14 = load i64, ptr %6, align 8
  %15 = lshr i64 %14, 32
  %16 = and i64 %15, 67108863
  %17 = sext i1 %13 to i64
  %18 = add nsw i64 %16, %17
  %19 = and i64 %18, 4294967295
  %20 = icmp eq i64 %19, 0
  %21 = load ptr, ptr %2, align 8, !tbaa !3
  br i1 %20, label %22, label %37

22:                                               ; preds = %3
  store ptr %21, ptr %0, align 8, !tbaa !11
  %23 = load i64, ptr %21, align 8
  %24 = lshr i64 %23, 40
  %25 = trunc nuw nsw i64 %24 to i32
  %26 = and i32 %25, 1048575
  %27 = icmp samesign ult i32 %26, 1048574
  br i1 %27, label %28, label %33, !prof !113

28:                                               ; preds = %22
  %29 = add i64 %23, 1099511627776
  %30 = and i64 %29, 1152920405095219200
  %31 = and i64 %23, -1152920405095219201
  %32 = or disjoint i64 %30, %31
  store i64 %32, ptr %21, align 8
  br label %_ZN4cvc58internal12NodeTemplateILb1EEC2ERKNS1_ILb0EEE.exit

33:                                               ; preds = %22
  %34 = icmp eq i32 %26, 1048574
  br i1 %34, label %35, label %_ZN4cvc58internal12NodeTemplateILb1EEC2ERKNS1_ILb0EEE.exit, !prof !114

35:                                               ; preds = %33
  %36 = or i64 %23, 1152920405095219200
  store i64 %36, ptr %21, align 8
  tail call void @_ZN4cvc58internal4expr9NodeValue20markRefCountMaxedOutEv(ptr noundef nonnull align 8 dereferenceable(24) %21)
  br label %_ZN4cvc58internal12NodeTemplateILb1EEC2ERKNS1_ILb0EEE.exit

37:                                               ; preds = %3
  %38 = tail call fastcc noundef i32 @_ZN4cvc58internal6theoryL8theoryOfENS0_12NodeTemplateILb0EEE(ptr %21)
  %39 = load ptr, ptr %2, align 8, !tbaa !3
  store ptr %39, ptr %4, align 8, !tbaa !11
  %40 = load i64, ptr %39, align 8
  %41 = lshr i64 %40, 40
  %42 = trunc nuw nsw i64 %41 to i32
  %43 = and i32 %42, 1048575
  %44 = icmp samesign ult i32 %43, 1048574
  br i1 %44, label %45, label %50, !prof !113

45:                                               ; preds = %37
  %46 = add i64 %40, 1099511627776
  %47 = and i64 %46, 1152920405095219200
  %48 = and i64 %40, -1152920405095219201
  %49 = or disjoint i64 %47, %48
  store i64 %49, ptr %39, align 8
  br label %_ZN4cvc58internal12NodeTemplateILb1EEC2ERKNS1_ILb0EEE.exit4

50:                                               ; preds = %37
  %51 = icmp eq i32 %43, 1048574
  br i1 %51, label %52, label %_ZN4cvc58internal12NodeTemplateILb1EEC2ERKNS1_ILb0EEE.exit4, !prof !114

52:                                               ; preds = %50
  %53 = or i64 %40, 1152920405095219200
  store i64 %53, ptr %39, align 8
  tail call void @_ZN4cvc58internal4expr9NodeValue20markRefCountMaxedOutEv(ptr noundef nonnull align 8 dereferenceable(24) %39)
  br label %_ZN4cvc58internal12NodeTemplateILb1EEC2ERKNS1_ILb0EEE.exit4

_ZN4cvc58internal12NodeTemplateILb1EEC2ERKNS1_ILb0EEE.exit4: ; preds = %52, %50, %45
  invoke void @_ZN4cvc58internal6theory8Rewriter9rewriteToENS1_8TheoryIdENS0_12NodeTemplateILb1EEEPNS0_19TConvProofGeneratorE(ptr dead_on_unwind writable sret(%"class.cvc5::internal::NodeTemplate") align 8 %0, ptr noundef nonnull align 8 dereferenceable(216) %1, i32 noundef %38, ptr noundef nonnull %4, ptr noundef null)
          to label %54 unwind label %67

54:                                               ; preds = %_ZN4cvc58internal12NodeTemplateILb1EEC2ERKNS1_ILb0EEE.exit4
  %55 = load i64, ptr %39, align 8
  %56 = and i64 %55, 1152920405095219200
  %.not.i.i = icmp eq i64 %56, 1152920405095219200
  br i1 %.not.i.i, label %_ZN4cvc58internal12NodeTemplateILb1EEC2ERKNS1_ILb0EEE.exit, label %57, !prof !114

57:                                               ; preds = %54
  %58 = add i64 %55, 1152920405095219200
  %59 = and i64 %58, 1152920405095219200
  %60 = and i64 %55, -1152920405095219201
  %61 = or disjoint i64 %59, %60
  store i64 %61, ptr %39, align 8
  %62 = icmp eq i64 %59, 0
  br i1 %62, label %63, label %_ZN4cvc58internal12NodeTemplateILb1EEC2ERKNS1_ILb0EEE.exit, !prof !114

63:                                               ; preds = %57
  invoke void @_ZN4cvc58internal4expr9NodeValue15markForDeletionEv(ptr noundef nonnull align 8 dereferenceable(24) %39)
          to label %_ZN4cvc58internal12NodeTemplateILb1EEC2ERKNS1_ILb0EEE.exit unwind label %64

64:                                               ; preds = %63
  %65 = landingpad { ptr, i32 }
          catch ptr null
  %66 = extractvalue { ptr, i32 } %65, 0
  tail call void @__clang_call_terminate(ptr %66) #25
  unreachable

67:                                               ; preds = %_ZN4cvc58internal12NodeTemplateILb1EEC2ERKNS1_ILb0EEE.exit4
  %68 = landingpad { ptr, i32 }
          cleanup
  call void @_ZN4cvc58internal12NodeTemplateILb1EED2Ev(ptr noundef nonnull align 8 dereferenceable(8) %4) #24
  resume { ptr, i32 } %68

_ZN4cvc58internal12NodeTemplateILb1EEC2ERKNS1_ILb0EEE.exit: ; preds = %63, %57, %54, %35, %33, %28
  ret void
}